Certificate:
    Data:
        Version: 3 (0x2)
        Serial Number:
            b6:b8:85:77:51:22:9c:7c
        Signature Algorithm: sha1WithRSAEncryption
        Issuer: C=JP, ST=aaa, O=aaa, OU=aaa, CN=ca
        Validity
            Not Before: Mar  7 09:18:14 2013 GMT
            Not After : Mar  5 09:18:14 2023 GMT
        Subject: C=JP, ST=aaa, O=aaa, OU=aaa, CN=ca
        Subject Public Key Info:
            Public Key Algorithm: rsaEncryption
                Public-Key: (2048 bit)
                Modulus:
                    00:d7:6f:4a:5f:c7:52:c4:fb:44:22:c8:92:16:3c:
                    4a:fe:2b:be:f7:cb:36:75:28:6d:da:aa:f6:59:c8:
                    4a:85:2a:73:2d:ac:07:21:8d:a6:b6:a3:db:9a:f3:
                    86:7d:b5:df:84:36:fa:2c:75:71:23:68:18:f7:f3:
                    d4:5f:e4:b2:8f:44:ce:f8:69:d5:da:41:7c:ea:10:
                    16:2f:ea:eb:17:ff:a6:f0:23:a3:1d:66:8f:f6:2e:
                    01:af:20:a0:c9:6f:1f:99:f5:61:a1:42:15:a6:21:
                    1b:d1:67:56:bf:17:c2:6d:e0:25:e7:5d:cd:82:b4:
                    9c:d0:d1:6d:d5:7f:36:4d:12:a8:ed:ab:a6:bd:85:
                    b1:87:34:db:72:ef:f5:14:cd:5c:3f:b8:c1:62:d3:
                    28:88:64:39:e9:99:f1:f8:dd:a8:55:5d:9c:0f:80:
                    1d:a3:36:ce:4d:18:b6:40:22:42:7b:3c:e9:34:76:
                    de:f9:08:ea:c4:5e:5a:b9:d4:be:de:87:29:7e:bd:
                    3f:70:a5:0e:16:6a:1d:26:80:dd:ce:bb:9f:b5:a7:
                    a6:96:61:51:e2:d9:05:05:18:30:45:fe:54:12:8f:
                    1c:2a:80:af:c9:eb:96:dc:19:9f:eb:da:5f:b0:bd:
                    86:2a:1b:4f:52:05:6e:62:c3:ac:5f:c8:26:13:86:
                    c1:11
                Exponent: 65537 (0x10001)
        X509v3 extensions:
            X509v3 Subject Key Identifier: 
                50:EE:1F:6B:11:FC:8E:A3:8E:86:FB:CB:10:1A:B5:5A:95:A5:E5:00
            X509v3 Authority Key Identifier: 
                keyid:50:EE:1F:6B:11:FC:8E:A3:8E:86:FB:CB:10:1A:B5:5A:95:A5:E5:00

            X509v3 Basic Constraints: 
                CA:TRUE
    Signature Algorithm: sha1WithRSAEncryption
        85:ef:3b:fb:21:16:47:a3:c0:0c:55:fc:8c:61:9c:d2:87:bc:
        4b:a5:48:8c:4b:68:2d:d5:66:b3:ac:49:57:a5:24:03:9c:a3:
        17:5a:27:f3:1d:97:cd:db:39:18:72:c7:00:7b:e4:ab:34:5b:
        b2:41:7c:62:b0:97:30:7c:1d:ee:bf:03:7a:53:5c:73:03:7d:
        7e:45:9f:de:46:8a:33:95:2c:04:12:4e:0b:14:69:74:a5:53:
        e9:53:52:37:41:e9:ec:b5:4c:53:e1:1e:78:73:1a:c1:fe:76:
        16:2f:77:50:89:91:c2:a3:3a:0f:ec:d2:c4:72:67:eb:7a:c7:
        88:de:d3:2c:c4:67:1b:3c:75:c0:c4:b0:ba:f5:de:c4:3e:89:
        a7:16:e2:bf:dd:08:88:55:35:fe:6a:2b:d4:16:47:43:be:09:
        b9:27:ee:89:da:25:9d:f5:aa:7b:78:ab:06:6a:79:7e:84:88:
        bf:a6:0b:8f:50:38:f6:38:a4:97:12:05:89:c6:2b:ee:29:aa:
        4b:9a:5e:a6:14:4e:8c:65:2b:87:5f:7c:d7:e6:51:98:83:f8:
        ea:04:cd:0c:f2:4f:9e:79:29:25:ff:8b:1b:02:eb:71:29:13:
        81:1d:e2:35:96:ef:dc:0c:3f:e5:b6:8a:d2:4b:08:07:b5:c4:
        b0:27:7d:f3
-----BEGIN CERTIFICATE-----
MIIDWzCCAkOgAwIBAgIJALa4hXdRIpx8MA0GCSqGSIb3DQEBBQUAMEQxCzAJBgNV
BAYTAkpQMQwwCgYDVQQIDANhYWExDDAKBgNVBAoMA2FhYTEMMAoGA1UECwwDYWFh
MQswCQYDVQQDDAJjYTAeFw0xMzAzMDcwOTE4MTRaFw0yMzAzMDUwOTE4MTRaMEQx
CzAJBgNVBAYTAkpQMQwwCgYDVQQIDANhYWExDDAKBgNVBAoMA2FhYTEMMAoGA1UE
CwwDYWFhMQswCQYDVQQDDAJjYTCCASIwDQYJKoZIhvcNAQEBBQADggEPADCCAQoC
ggEBANdvSl/HUsT7RCLIkhY8Sv4rvvfLNnUobdqq9lnISoUqcy2sByGNpraj25rz
hn2134Q2+ix1cSNoGPfz1F/kso9Ezvhp1dpBfOoQFi/q6xf/pvAjox1mj/YuAa8g
oMlvH5n1YaFCFaYhG9FnVr8Xwm3gJeddzYK0nNDRbdV/Nk0SqO2rpr2FsYc023Lv
9RTNXD+4wWLTKIhkOemZ8fjdqFVdnA+AHaM2zk0YtkAiQns86TR23vkI6sReWrnU
vt6HKX69P3ClDhZqHSaA3c67n7WnppZhUeLZBQUYMEX+VBKPHCqAr8nrltwZn+va
X7C9hiobT1IFbmLDrF/IJhOGwRECAwEAAaNQME4wHQYDVR0OBBYEFFDuH2sR/I6j
job7yxAatVqVpeUAMB8GA1UdIwQYMBaAFFDuH2sR/I6jjob7yxAatVqVpeUAMAwG
A1UdEwQFMAMBAf8wDQYJKoZIhvcNAQEFBQADggEBAIXvO/shFkejwAxV/IxhnNKH
vEulSIxLaC3VZrOsSVelJAOcoxdaJ/Mdl83bORhyxwB75Ks0W7JBfGKwlzB8He6/
A3pTXHMDfX5Fn95GijOVLAQSTgsUaXSlU+lTUjdB6ey1TFPhHnhzGsH+dhYvd1CJ
kcKjOg/s0sRyZ+t6x4je0yzEZxs8dcDEsLr13sQ+iacW4r/dCIhVNf5qK9QWR0O+
Cbkn7onaJZ31qnt4qwZqeX6EiL+mC49QOPY4pJcSBYnGK+4pqkuaXqYUToxlK4df
fNfmUZiD+OoEzQzyT555KSX/ixsC63EpE4Ed4jWW79wMP+W2itJLCAe1xLAnffM=
-----END CERTIFICATE-----
