Certificate:
    Data:
        Version: 3 (0x2)
        Serial Number:
            b6:b8:85:77:51:22:ec:99
    Signature Algorithm: sha256WithRSAEncryption
        Issuer: C=JP, ST=aaa, O=aaa, OU=aaa, CN=ca
        Validity
            Not Before: Apr 17 04:34:51 2017 GMT
            Not After : Apr 15 04:34:51 2027 GMT
        Subject: C=JP, ST=aaa, L=bbb, O=ccc, OU=ddd, CN=user1
        Subject Public Key Info:
            Public Key Algorithm: rsaEncryption
                Public-Key: (2048 bit)
                Modulus:
                    00:be:c0:fe:86:db:1e:9c:54:68:81:27:de:f8:40:
                    53:f7:ac:b5:e3:2f:77:b1:2d:cb:c4:dc:66:ba:ff:
                    c4:68:96:f0:fe:71:e0:fa:87:81:82:a9:69:5c:90:
                    43:00:fb:5c:55:7b:fe:39:ea:ff:7a:eb:02:bf:fb:
                    9f:74:b8:54:c6:7a:42:c7:63:f8:4b:97:1c:b8:4b:
                    04:8a:1a:58:ef:c4:74:a7:d6:e3:ff:95:84:99:b4:
                    88:b5:e6:fa:86:20:4b:a1:78:b4:74:1b:21:44:15:
                    4a:89:4b:08:15:a4:a2:83:1d:53:ca:77:ce:35:95:
                    cf:79:e7:0c:52:db:01:a1:e1:4c:10:53:be:af:60:
                    ad:ea:f4:b5:d7:fd:2b:47:e7:96:0c:09:4b:3b:58:
                    70:39:16:df:79:ec:01:1f:af:ee:4e:fe:45:9e:7d:
                    d4:07:ad:dc:0c:b0:6e:57:36:f9:87:a2:a8:91:5b:
                    92:28:48:95:e1:84:d0:1b:8e:69:e5:00:49:37:63:
                    6a:44:ae:82:12:5e:31:84:fa:40:ef:8a:6c:e7:05:
                    f9:6f:99:6e:44:38:e1:3f:e0:da:ec:22:76:f1:3b:
                    6a:a5:de:1f:89:34:2b:7b:4f:97:23:5c:38:e8:c9:
                    61:70:8b:54:a3:a5:77:0c:d7:3a:0f:9d:e8:60:1b:
                    0a:35
                Exponent: 65537 (0x10001)
        X509v3 extensions:
            X509v3 Basic Constraints: 
                CA:FALSE
            Netscape Comment: 
                OpenSSL Generated Certificate
            X509v3 Subject Key Identifier: 
                4A:3A:2E:E6:0D:37:01:02:92:99:A5:12:13:CD:57:1C:47:56:B5:D6
            X509v3 Authority Key Identifier: 
                keyid:50:EE:1F:6B:11:FC:8E:A3:8E:86:FB:CB:10:1A:B5:5A:95:A5:E5:00

    Signature Algorithm: sha256WithRSAEncryption
         b0:2d:f5:ba:ed:90:fe:8e:33:61:aa:8d:48:35:80:4a:e8:72:
         c6:09:30:f4:aa:8d:d1:bd:55:76:13:8d:23:1f:fc:ee:58:a1:
         f5:50:b7:eb:bb:1a:b6:dd:3d:f5:9e:a1:5a:ef:fd:62:46:bc:
         08:15:e4:1e:54:6a:52:2e:b4:4d:70:20:3c:fa:81:a8:f0:07:
         05:e2:08:5b:22:03:2c:a0:bf:b6:66:32:59:53:d1:7c:5e:1e:
         00:5b:92:11:a9:3c:0b:a9:1f:a3:79:66:af:08:94:e8:b3:02:
         e6:07:33:73:c5:ac:62:2d:e7:d1:93:68:8f:cd:74:1e:e6:e7:
         55:a6:3a:0a:1e:01:55:84:00:7e:a2:8e:ea:ed:1e:4f:de:66:
         db:b5:d2:53:d1:fd:6d:12:30:02:94:57:95:85:0f:ca:b2:75:
         7c:46:1c:71:57:23:89:e0:ae:e1:1d:06:56:90:02:b4:b1:30:
         c2:83:44:72:9e:c4:e9:48:90:f7:11:8a:7b:c5:66:1d:ad:3d:
         15:47:be:39:33:24:f6:fd:71:21:4c:43:3c:62:de:e4:98:69:
         51:de:2c:c2:95:80:67:4c:c0:78:a7:03:32:12:af:30:49:bf:
         03:1c:12:f2:e4:6b:65:e0:ea:40:9b:6c:f1:25:01:fb:47:d5:
         34:51:6f:e3
-----BEGIN CERTIFICATE-----
MIIDlzCCAn+gAwIBAgIJALa4hXdRIuyZMA0GCSqGSIb3DQEBCwUAMEQxCzAJBgNV
BAYTAkpQMQwwCgYDVQQIDANhYWExDDAKBgNVBAoMA2FhYTEMMAoGA1UECwwDYWFh
MQswCQYDVQQDDAJjYTAeFw0xNzA0MTcwNDM0NTFaFw0yNzA0MTUwNDM0NTFaMFUx
CzAJBgNVBAYTAkpQMQwwCgYDVQQIDANhYWExDDAKBgNVBAcMA2JiYjEMMAoGA1UE
CgwDY2NjMQwwCgYDVQQLDANkZGQxDjAMBgNVBAMMBXVzZXIxMIIBIjANBgkqhkiG
9w0BAQEFAAOCAQ8AMIIBCgKCAQEAvsD+htsenFRogSfe+EBT96y14y93sS3LxNxm
uv/EaJbw/nHg+oeBgqlpXJBDAPtcVXv+Oer/eusCv/ufdLhUxnpCx2P4S5ccuEsE
ihpY78R0p9bj/5WEmbSIteb6hiBLoXi0dBshRBVKiUsIFaSigx1TynfONZXPeecM
UtsBoeFMEFO+r2Ct6vS11/0rR+eWDAlLO1hwORbfeewBH6/uTv5Fnn3UB63cDLBu
Vzb5h6KokVuSKEiV4YTQG45p5QBJN2NqRK6CEl4xhPpA74ps5wX5b5luRDjhP+Da
7CJ28Ttqpd4fiTQre0+XI1w46MlhcItUo6V3DNc6D53oYBsKNQIDAQABo3sweTAJ
BgNVHRMEAjAAMCwGCWCGSAGG+EIBDQQfFh1PcGVuU1NMIEdlbmVyYXRlZCBDZXJ0
aWZpY2F0ZTAdBgNVHQ4EFgQUSjou5g03AQKSmaUSE81XHEdWtdYwHwYDVR0jBBgw
FoAUUO4faxH8jqOOhvvLEBq1WpWl5QAwDQYJKoZIhvcNAQELBQADggEBALAt9brt
kP6OM2GqjUg1gErocsYJMPSqjdG9VXYTjSMf/O5YofVQt+u7GrbdPfWeoVrv/WJG
vAgV5B5UalIutE1wIDz6gajwBwXiCFsiAyygv7ZmMllT0XxeHgBbkhGpPAupH6N5
Zq8IlOizAuYHM3PFrGIt59GTaI/NdB7m51WmOgoeAVWEAH6ijurtHk/eZtu10lPR
/W0SMAKUV5WFD8qydXxGHHFXI4ngruEdBlaQArSxMMKDRHKexOlIkPcRinvFZh2t
PRVHvjkzJPb9cSFMQzxi3uSYaVHeLMKVgGdMwHinAzISrzBJvwMcEvLka2Xg6kCb
bPElAftH1TRRb+M=
-----END CERTIFICATE-----
